; Function Attrs: mustprogress uwtable
define internal void @_ZN7rocksdb12_GLOBAL__N_126BackupEngineImplThreadSafe27CreateNewBackupWithMetadataERKNS_19CreateBackupOptionsEPNS_2DBERKNSt7__cxx1112basic_stringIcSt11char_traitsIcESaIcEEEPj(ptr noalias sret(%"class.rocksdb::IOStatus") align 8 %agg.result, ptr noundef nonnull align 8 dereferenceable(896) %this, ptr noundef nonnull align 8 dereferenceable(80) %options, ptr noundef %db, ptr noundef nonnull align 8 dereferenceable(32) %app_metadata, ptr noundef %new_backup_id) unnamed_addr #3 align 2 personality ptr @__gxx_personality_v0 {
entry:
  %mutex_ = getelementptr inbounds i8, ptr %this, i64 24
  tail call void @_ZN7rocksdb4port7RWMutex9WriteLockEv(ptr noundef nonnull align 8 dereferenceable(56) %mutex_)
  %impl_ = getelementptr inbounds i8, ptr %this, i64 80
  invoke fastcc void @_ZN7rocksdb12_GLOBAL__N_116BackupEngineImpl27CreateNewBackupWithMetadataERKNS_19CreateBackupOptionsEPNS_2DBERKNSt7__cxx1112basic_stringIcSt11char_traitsIcESaIcEEEPj(ptr noalias align 8 %agg.result, ptr noundef nonnull align 8 dereferenceable(816) %impl_, ptr noundef nonnull align 8 dereferenceable(80) %options, ptr noundef %db, ptr noundef nonnull align 8 dereferenceable(32) %app_metadata, ptr noundef %new_backup_id)
          to label %invoke.cont unwind label %lpad

invoke.cont:                                      ; preds = %entry
  invoke void @_ZN7rocksdb4port7RWMutex11WriteUnlockEv(ptr noundef nonnull align 8 dereferenceable(56) %mutex_)
          to label %_ZN7rocksdb9WriteLockD2Ev.exit unwind label %terminate.lpad.i

terminate.lpad.i:                                 ; preds = %invoke.cont
  %0 = landingpad { ptr, i32 }
          catch ptr null
  %1 = extractvalue { ptr, i32 } %0, 0
  tail call void @__clang_call_terminate(ptr %1) #35
  unreachable

_ZN7rocksdb9WriteLockD2Ev.exit:                   ; preds = %invoke.cont
  ret void

lpad:                                             ; preds = %entry
  %2 = landingpad { ptr, i32 }
          cleanup
  invoke void @_ZN7rocksdb4port7RWMutex11WriteUnlockEv(ptr noundef nonnull align 8 dereferenceable(56) %mutex_)
          to label %_ZN7rocksdb9WriteLockD2Ev.exit2 unwind label %terminate.lpad.i1

terminate.lpad.i1:                                ; preds = %lpad
  %3 = landingpad { ptr, i32 }
          catch ptr null
  %4 = extractvalue { ptr, i32 } %3, 0
  tail call void @__clang_call_terminate(ptr %4) #35
  unreachable

_ZN7rocksdb9WriteLockD2Ev.exit2:                  ; preds = %lpad
  resume { ptr, i32 } %2
}